target datalayout = "e-m:e-p270:32:32-p271:32:32-p272:64:64-i64:64-i128:128-f80:128-n8:16:32:64-S128"
target triple = "x86_64-pc-linux-gnu"

; Function Attrs: nounwind uwtable
define void @QDLDL_Ltsolve(i64 noundef %0, ptr noundef %1, ptr noundef %2, ptr noundef %3, ptr noundef %4) #0 {
  %6 = alloca i64, align 8
  %7 = alloca ptr, align 8
  %8 = alloca ptr, align 8
  %9 = alloca ptr, align 8
  %10 = alloca ptr, align 8
  %11 = alloca i64, align 8
  %12 = alloca i64, align 8
  %13 = alloca double, align 8
  store i64 %0, ptr %6, align 8, !tbaa !3
  store ptr %1, ptr %7, align 8, !tbaa !7
  store ptr %2, ptr %8, align 8, !tbaa !7
  store ptr %3, ptr %9, align 8, !tbaa !16
  store ptr %4, ptr %10, align 8, !tbaa !16
  call void @llvm.lifetime.start.p0(i64 8, ptr %11) #3
  call void @llvm.lifetime.start.p0(i64 8, ptr %12) #3
  %14 = load i64, ptr %6, align 8, !tbaa !3
  %15 = sub nsw i64 %14, 1
  store i64 %15, ptr %11, align 8, !tbaa !3
  br label %16

16:                                               ; preds = %59, %5
  %17 = load i64, ptr %11, align 8, !tbaa !3
  %18 = icmp sge i64 %17, 0
  br i1 %18, label %19, label %62

19:                                               ; preds = %16
  call void @llvm.lifetime.start.p0(i64 8, ptr %13) #3
  %20 = load ptr, ptr %10, align 8, !tbaa !16
  %21 = load i64, ptr %11, align 8, !tbaa !3
  %22 = getelementptr inbounds double, ptr %20, i64 %21
  %23 = load double, ptr %22, align 8, !tbaa !21
  store double %23, ptr %13, align 8, !tbaa !21
  %24 = load ptr, ptr %7, align 8, !tbaa !7
  %25 = load i64, ptr %11, align 8, !tbaa !3
  %26 = getelementptr inbounds i64, ptr %24, i64 %25
  %27 = load i64, ptr %26, align 8, !tbaa !3
  store i64 %27, ptr %12, align 8, !tbaa !3
  br label %28

28:                                               ; preds = %51, %19
  %29 = load i64, ptr %12, align 8, !tbaa !3
  %30 = load ptr, ptr %7, align 8, !tbaa !7
  %31 = load i64, ptr %11, align 8, !tbaa !3
  %32 = add nsw i64 %31, 1
  %33 = getelementptr inbounds i64, ptr %30, i64 %32
  %34 = load i64, ptr %33, align 8, !tbaa !3
  %35 = icmp slt i64 %29, %34
  br i1 %35, label %36, label %54

36:                                               ; preds = %28
  %37 = load ptr, ptr %9, align 8, !tbaa !16
  %38 = load i64, ptr %12, align 8, !tbaa !3
  %39 = getelementptr inbounds double, ptr %37, i64 %38
  %40 = load double, ptr %39, align 8, !tbaa !21
  %41 = load ptr, ptr %10, align 8, !tbaa !16
  %42 = load ptr, ptr %8, align 8, !tbaa !7
  %43 = load i64, ptr %12, align 8, !tbaa !3
  %44 = getelementptr inbounds i64, ptr %42, i64 %43
  %45 = load i64, ptr %44, align 8, !tbaa !3
  %46 = getelementptr inbounds double, ptr %41, i64 %45
  %47 = load double, ptr %46, align 8, !tbaa !21
  %48 = load double, ptr %13, align 8, !tbaa !21
  %49 = fneg double %40
  %50 = call double @llvm.fmuladd.f64(double %49, double %47, double %48)
  store double %50, ptr %13, align 8, !tbaa !21
  br label %51

51:                                               ; preds = %36
  %52 = load i64, ptr %12, align 8, !tbaa !3
  %53 = add nsw i64 %52, 1
  store i64 %53, ptr %12, align 8, !tbaa !3
  br label %28, !llvm.loop !32

54:                                               ; preds = %28
  %55 = load double, ptr %13, align 8, !tbaa !21
  %56 = load ptr, ptr %10, align 8, !tbaa !16
  %57 = load i64, ptr %11, align 8, !tbaa !3
  %58 = getelementptr inbounds double, ptr %56, i64 %57
  store double %55, ptr %58, align 8, !tbaa !21
  call void @llvm.lifetime.end.p0(i64 8, ptr %13) #3
  br label %59

59:                                               ; preds = %54
  %60 = load i64, ptr %11, align 8, !tbaa !3
  %61 = add nsw i64 %60, -1
  store i64 %61, ptr %11, align 8, !tbaa !3
  br label %16, !llvm.loop !33

62:                                               ; preds = %16
  call void @llvm.lifetime.end.p0(i64 8, ptr %12) #3
  call void @llvm.lifetime.end.p0(i64 8, ptr %11) #3
  ret void
}