; Function Attrs: nofree norecurse nosync nounwind memory(argmem: readwrite) uwtable
define void @QDLDL_Ltsolve(i64 noundef %0, ptr noundef readonly captures(none) %1, ptr noundef readonly captures(none) %2, ptr noundef readonly captures(none) %3, ptr noundef captures(none) %4) local_unnamed_addr #0 {
  %6 = icmp sgt i64 %0, 0
  br i1 %6, label %.lr.ph27.preheader, label %._crit_edge28

.lr.ph27.preheader:                               ; preds = %5
  %.phi.trans.insert = getelementptr inbounds nuw i64, ptr %1, i64 %0
  %.pre = load i64, ptr %.phi.trans.insert, align 8, !tbaa !3
  br label %.lr.ph27

.lr.ph27:                                         ; preds = %.lr.ph27.preheader, %._crit_edge
  %7 = phi i64 [ %11, %._crit_edge ], [ %.pre, %.lr.ph27.preheader ]
  %.020.in24 = phi i64 [ %.02025, %._crit_edge ], [ %0, %.lr.ph27.preheader ]
  %.02025 = add nsw i64 %.020.in24, -1
  %8 = getelementptr inbounds nuw double, ptr %4, i64 %.02025
  %9 = load double, ptr %8, align 8, !tbaa !14
  %10 = getelementptr inbounds nuw i64, ptr %1, i64 %.02025
  %11 = load i64, ptr %10, align 8, !tbaa !3
  %12 = icmp slt i64 %11, %7
  br i1 %12, label %.lr.ph, label %._crit_edge

.lr.ph:                                           ; preds = %.lr.ph27, %.lr.ph
  %.022 = phi double [ %20, %.lr.ph ], [ %9, %.lr.ph27 ]
  %.01921 = phi i64 [ %21, %.lr.ph ], [ %11, %.lr.ph27 ]
  %13 = getelementptr inbounds double, ptr %3, i64 %.01921
  %14 = load double, ptr %13, align 8, !tbaa !14
  %15 = getelementptr inbounds i64, ptr %2, i64 %.01921
  %16 = load i64, ptr %15, align 8, !tbaa !3
  %17 = getelementptr inbounds double, ptr %4, i64 %16
  %18 = load double, ptr %17, align 8, !tbaa !14
  %19 = fneg double %14
  %20 = tail call double @llvm.fmuladd.f64(double %19, double %18, double %.022)
  %21 = add nsw i64 %.01921, 1
  %exitcond.not = icmp eq i64 %21, %7
  br i1 %exitcond.not, label %._crit_edge, label %.lr.ph, !llvm.loop !25

._crit_edge:                                      ; preds = %.lr.ph, %.lr.ph27
  %.0.lcssa = phi double [ %9, %.lr.ph27 ], [ %20, %.lr.ph ]
  store double %.0.lcssa, ptr %8, align 8, !tbaa !14
  %22 = icmp sgt i64 %.020.in24, 1
  br i1 %22, label %.lr.ph27, label %._crit_edge28, !llvm.loop !26

._crit_edge28:                                    ; preds = %._crit_edge, %5
  ret void
}